target datalayout = "e-m:e-p270:32:32-p271:32:32-p272:64:64-i64:64-i128:128-f80:128-n8:16:32:64-S128"
target triple = "x86_64-pc-linux-gnu"

%struct.ssl_connection_st = type { %struct.ssl_st, ptr, i32, ptr, ptr, ptr, i32, ptr, i32, i32, i32, i32, %struct.OSSL_TIME, %struct.OSSL_TIME, %struct.ossl_statem_st, i32, ptr, ptr, i64, i64, i64, %struct.ossl_quic_tls_callbacks_st, ptr, ptr, %struct.anon, ptr, ptr, ptr, i32, ptr, %struct.ssl_dane_st, ptr, ptr, ptr, ptr, i32, [64 x i8], [64 x i8], [64 x i8], [64 x i8], [64 x i8], [64 x i8], [64 x i8], [64 x i8], [64 x i8], [64 x i8], [64 x i8], [64 x i8], ptr, [64 x i8], i64, i32, i64, [32 x i8], ptr, ptr, ptr, i64, ptr, [32 x i8], i64, i32, ptr, ptr, i32, i32, ptr, ptr, ptr, ptr, ptr, i64, ptr, ptr, i64, i32, i32, i32, i64, i32, i32, i64, i64, i64, %struct.anon.1, ptr, i32, ptr, ptr, ptr, i32, ptr, ptr, ptr, i32, i32, i32, i32, ptr, i64, i32, ptr, %struct.srp_ctx_st, ptr, %struct.record_layer_st, ptr, ptr, ptr, ptr, i64, i32, i32, i32, i64, i64, i64, ptr, ptr, ptr, ptr, ptr, i64, ptr, i64, ptr, i64 }
%struct.ssl_st = type { i32, ptr, ptr, ptr, %struct.CRYPTO_REF_COUNT, ptr, %struct.crypto_ex_data_st }
%struct.CRYPTO_REF_COUNT = type { i32 }
%struct.crypto_ex_data_st = type { ptr, ptr }
%struct.OSSL_TIME = type { i64 }
%struct.ossl_statem_st = type { i32, i32, i32, i32, i32, i32, i32, i32, i32, i32, i32, i32, i32, ptr, ptr, ptr, i8 }
%struct.ossl_quic_tls_callbacks_st = type { ptr, ptr, ptr, ptr, ptr, ptr }
%struct.anon = type { i64, [32 x i8], [32 x i8], ptr, ptr, i32, i32, i32, i32, [2 x i8], i32, i32, i32, i32, %struct.anon.0, [64 x i8], i64, [64 x i8], i64, i32, i32, ptr, i64, ptr, i64, i32, i8, i8, i16, ptr, i16 }
%struct.anon.0 = type { [128 x i8], i64, [128 x i8], i64, i64, i32, ptr, ptr, [4 x ptr], [4 x i16], i64, i32, ptr, i64, ptr, i64, ptr, ptr, ptr, i32, i64, ptr, i32, ptr, i64, ptr, i64, ptr, i64, ptr, ptr, ptr, ptr, i64, i64, ptr, ptr, i32, i32, i32, i32 }
%struct.ssl_dane_st = type { ptr, ptr, ptr, ptr, ptr, i32, i32, i32, i64 }
%struct.anon.1 = type { [29 x i8], ptr, ptr, ptr, i32, ptr, i16, i32, %struct.anon.2, i32, i32, i64, ptr, i64, ptr, i64, ptr, i64, ptr, i64, ptr, i64, ptr, ptr, ptr, ptr, ptr, ptr, ptr, i64, ptr, i64, i32, i32, i32, i32, ptr, i64, i32, i8, i32, [4 x i32], i32, i8, i8, i8, i8 }
%struct.anon.2 = type { ptr, ptr, ptr, i64 }
%struct.srp_ctx_st = type { ptr, ptr, ptr, ptr, ptr, ptr, ptr, ptr, ptr, ptr, ptr, ptr, ptr, ptr, i32, i64 }
%struct.record_layer_st = type { ptr, ptr, ptr, ptr, ptr, ptr, ptr, ptr, i64, i32, i64, [4 x i8], i64, i64, i8, ptr, i32, ptr, ptr, ptr, i64, i64, i64, i64, [32 x %struct.tls_record_st] }
%struct.tls_record_st = type { ptr, i32, i8, ptr, ptr, i64, i64, i16, [8 x i8] }
%struct.ssl_method_st = type { i32, i32, i64, ptr, ptr, ptr, ptr, ptr, ptr, ptr, ptr, ptr, ptr, ptr, ptr, ptr, ptr, ptr, ptr, ptr, ptr, ptr, ptr, ptr, ptr, ptr, ptr, ptr, ptr, ptr, ptr, ptr }
%struct.ssl_async_args = type { ptr, ptr, i64, i32, %union.anon }
%union.anon = type { ptr }

@.str = private unnamed_addr constant [25 x i8] c"../openssl/ssl/ssl_lib.c\00", align 1
@__func__.SSL_shutdown = private unnamed_addr constant [13 x i8] c"SSL_shutdown\00", align 1

; Function Attrs: nounwind uwtable
define i32 @SSL_shutdown(ptr noundef %0) #0 {
  %2 = alloca i32, align 4
  %3 = alloca ptr, align 8
  %4 = alloca ptr, align 8
  %5 = alloca i32, align 4
  %6 = alloca %struct.ssl_async_args, align 8
  store ptr %0, ptr %3, align 8, !tbaa !16
  call void @llvm.lifetime.start.p0(i64 8, ptr %4) #9
  %7 = load ptr, ptr %3, align 8, !tbaa !16
  %8 = icmp eq ptr %7, null
  br i1 %8, label %9, label %10

9:                                                ; preds = %1
  br label %31

10:                                               ; preds = %1
  %11 = load ptr, ptr %3, align 8, !tbaa !16
  %12 = getelementptr inbounds nuw %struct.ssl_st, ptr %11, i32 0, i32 0
  %13 = load i32, ptr %12, align 8, !tbaa !29
  %14 = icmp eq i32 %13, 0
  br i1 %14, label %15, label %17

15:                                               ; preds = %10
  %16 = load ptr, ptr %3, align 8, !tbaa !16
  br label %29

17:                                               ; preds = %10
  %18 = load ptr, ptr %3, align 8, !tbaa !16
  %19 = getelementptr inbounds nuw %struct.ssl_st, ptr %18, i32 0, i32 0
  %20 = load i32, ptr %19, align 8, !tbaa !29
  %21 = and i32 %20, 128
  %22 = icmp ne i32 %21, 0
  br i1 %22, label %23, label %26

23:                                               ; preds = %17
  %24 = load ptr, ptr %3, align 8, !tbaa !16
  %25 = call ptr @ossl_quic_obj_get0_handshake_layer(ptr noundef %24)
  br label %27

26:                                               ; preds = %17
  br label %27

27:                                               ; preds = %26, %23
  %28 = phi ptr [ %25, %23 ], [ null, %26 ]
  br label %29

29:                                               ; preds = %27, %15
  %30 = phi ptr [ %16, %15 ], [ %28, %27 ]
  br label %31

31:                                               ; preds = %29, %9
  %32 = phi ptr [ null, %9 ], [ %30, %29 ]
  store ptr %32, ptr %4, align 8, !tbaa !3
  %33 = load ptr, ptr %3, align 8, !tbaa !16
  %34 = icmp ne ptr %33, null
  br i1 %34, label %35, label %44

35:                                               ; preds = %31
  %36 = load ptr, ptr %3, align 8, !tbaa !16
  %37 = getelementptr inbounds nuw %struct.ssl_st, ptr %36, i32 0, i32 0
  %38 = load i32, ptr %37, align 8, !tbaa !29
  %39 = and i32 %38, 128
  %40 = icmp ne i32 %39, 0
  br i1 %40, label %41, label %44

41:                                               ; preds = %35
  %42 = load ptr, ptr %3, align 8, !tbaa !16
  %43 = call i32 @ossl_quic_conn_shutdown(ptr noundef %42, i64 noundef 0, ptr noundef null, i64 noundef 0)
  store i32 %43, ptr %2, align 4
  store i32 1, ptr %5, align 4
  br label %88

44:                                               ; preds = %35, %31
  %45 = load ptr, ptr %4, align 8, !tbaa !3
  %46 = icmp eq ptr %45, null
  br i1 %46, label %47, label %48

47:                                               ; preds = %44
  store i32 -1, ptr %2, align 4
  store i32 1, ptr %5, align 4
  br label %88

48:                                               ; preds = %44
  %49 = load ptr, ptr %4, align 8, !tbaa !3
  %50 = getelementptr inbounds nuw %struct.ssl_connection_st, ptr %49, i32 0, i32 7
  %51 = load ptr, ptr %50, align 8, !tbaa !431
  %52 = icmp eq ptr %51, null
  br i1 %52, label %53, label %54

53:                                               ; preds = %48
  call void @ERR_new()
  call void @ERR_set_debug(ptr noundef @.str, i32 noundef 2772, ptr noundef @__func__.SSL_shutdown)
  call void (i32, i32, ptr, ...) @ERR_set_error(i32 noundef 20, i32 noundef 276, ptr noundef null)
  store i32 -1, ptr %2, align 4
  store i32 1, ptr %5, align 4
  br label %88

54:                                               ; preds = %48
  %55 = load ptr, ptr %3, align 8, !tbaa !16
  %56 = call i32 @SSL_in_init(ptr noundef %55)
  %57 = icmp ne i32 %56, 0
  br i1 %57, label %87, label %58

58:                                               ; preds = %54
  %59 = load ptr, ptr %4, align 8, !tbaa !3
  %60 = getelementptr inbounds nuw %struct.ssl_connection_st, ptr %59, i32 0, i32 75
  %61 = load i32, ptr %60, align 8, !tbaa !144
  %62 = and i32 %61, 256
  %63 = icmp ne i32 %62, 0
  br i1 %63, label %64, label %79

64:                                               ; preds = %58
  %65 = call ptr @ASYNC_get_current_job()
  %66 = icmp eq ptr %65, null
  br i1 %66, label %67, label %79

67:                                               ; preds = %64
  call void @llvm.lifetime.start.p0(i64 40, ptr %6) #9
  call void @llvm.memset.p0.i64(ptr align 8 %6, i8 0, i64 40, i1 false)
  %68 = load ptr, ptr %3, align 8, !tbaa !16
  %69 = getelementptr inbounds nuw %struct.ssl_async_args, ptr %6, i32 0, i32 0
  store ptr %68, ptr %69, align 8, !tbaa !433
  %70 = getelementptr inbounds nuw %struct.ssl_async_args, ptr %6, i32 0, i32 3
  store i32 2, ptr %70, align 8, !tbaa !442
  %71 = load ptr, ptr %3, align 8, !tbaa !16
  %72 = getelementptr inbounds nuw %struct.ssl_st, ptr %71, i32 0, i32 3
  %73 = load ptr, ptr %72, align 8, !tbaa !18
  %74 = getelementptr inbounds nuw %struct.ssl_method_st, ptr %73, i32 0, i32 14
  %75 = load ptr, ptr %74, align 8, !tbaa !450
  %76 = getelementptr inbounds nuw %struct.ssl_async_args, ptr %6, i32 0, i32 4
  store ptr %75, ptr %76, align 8, !tbaa !282
  %77 = load ptr, ptr %3, align 8, !tbaa !16
  %78 = call i32 @ssl_start_async_job(ptr noundef %77, ptr noundef %6, ptr noundef @ssl_io_intern)
  store i32 %78, ptr %2, align 4
  store i32 1, ptr %5, align 4
  call void @llvm.lifetime.end.p0(i64 40, ptr %6) #9
  br label %88

79:                                               ; preds = %64, %58
  %80 = load ptr, ptr %3, align 8, !tbaa !16
  %81 = getelementptr inbounds nuw %struct.ssl_st, ptr %80, i32 0, i32 3
  %82 = load ptr, ptr %81, align 8, !tbaa !18
  %83 = getelementptr inbounds nuw %struct.ssl_method_st, ptr %82, i32 0, i32 14
  %84 = load ptr, ptr %83, align 8, !tbaa !450
  %85 = load ptr, ptr %3, align 8, !tbaa !16
  %86 = call i32 %84(ptr noundef %85)
  store i32 %86, ptr %2, align 4
  store i32 1, ptr %5, align 4
  br label %88

87:                                               ; preds = %54
  call void @ERR_new()
  call void @ERR_set_debug(ptr noundef @.str, i32 noundef 2790, ptr noundef @__func__.SSL_shutdown)
  call void (i32, i32, ptr, ...) @ERR_set_error(i32 noundef 20, i32 noundef 407, ptr noundef null)
  store i32 -1, ptr %2, align 4
  store i32 1, ptr %5, align 4
  br label %88

88:                                               ; preds = %87, %79, %67, %53, %47, %41
  call void @llvm.lifetime.end.p0(i64 8, ptr %4) #9
  %89 = load i32, ptr %2, align 4
  ret i32 %89
}