; Function Attrs: nounwind uwtable
define i32 @SSL_shutdown(ptr noundef %0) local_unnamed_addr #0 {
  %2 = alloca %struct.ssl_async_args, align 8
  %3 = icmp eq ptr %0, null
  br i1 %3, label %.thread24, label %4

4:                                                ; preds = %1
  %5 = load i32, ptr %0, align 8, !tbaa !19
  %6 = icmp eq i32 %5, 0
  br i1 %6, label %.thread28, label %7

7:                                                ; preds = %4
  %8 = and i32 %5, 128
  %.not = icmp eq i32 %8, 0
  br i1 %.not, label %11, label %9

9:                                                ; preds = %7
  %10 = tail call ptr @ossl_quic_obj_get0_handshake_layer(ptr noundef nonnull %0) #20
  %.pre = load i32, ptr %0, align 8, !tbaa !19
  br label %11

11:                                               ; preds = %7, %9
  %12 = phi i32 [ %5, %7 ], [ %.pre, %9 ]
  %.ph = phi ptr [ null, %7 ], [ %10, %9 ]
  %13 = and i32 %12, 128
  %.not21 = icmp eq i32 %13, 0
  br i1 %.not21, label %16, label %14

14:                                               ; preds = %11
  %15 = tail call i32 @ossl_quic_conn_shutdown(ptr noundef nonnull %0, i64 noundef 0, ptr noundef null, i64 noundef 0) #20
  br label %.thread24

16:                                               ; preds = %11
  %17 = icmp eq ptr %.ph, null
  br i1 %17, label %.thread24, label %.thread28

.thread28:                                        ; preds = %4, %16
  %.ph2730 = phi ptr [ %.ph, %16 ], [ %0, %4 ]
  %18 = getelementptr inbounds nuw i8, ptr %.ph2730, i64 112
  %19 = load ptr, ptr %18, align 8, !tbaa !390
  %20 = icmp eq ptr %19, null
  br i1 %20, label %21, label %22

21:                                               ; preds = %.thread28
  tail call void @ERR_new() #20
  tail call void @ERR_set_debug(ptr noundef nonnull @.str, i32 noundef 2772, ptr noundef nonnull @__func__.SSL_shutdown) #20
  tail call void (i32, i32, ptr, ...) @ERR_set_error(i32 noundef 20, i32 noundef 276, ptr noundef null) #20
  br label %.thread24

22:                                               ; preds = %.thread28
  %23 = tail call i32 @SSL_in_init(ptr noundef nonnull %0) #20
  %.not22 = icmp eq i32 %23, 0
  br i1 %.not22, label %24, label %46

24:                                               ; preds = %22
  %25 = getelementptr inbounds nuw i8, ptr %.ph2730, i64 2488
  %26 = load i32, ptr %25, align 8, !tbaa !130
  %27 = and i32 %26, 256
  %.not23 = icmp eq i32 %27, 0
  br i1 %.not23, label %40, label %28

28:                                               ; preds = %24
  %29 = tail call ptr @ASYNC_get_current_job() #20
  %30 = icmp eq ptr %29, null
  br i1 %30, label %31, label %40

31:                                               ; preds = %28
  call void @llvm.lifetime.start.p0(i64 40, ptr nonnull %2) #20
  %32 = getelementptr inbounds nuw i8, ptr %2, i64 8
  call void @llvm.memset.p0.i64(ptr noundef nonnull align 8 dereferenceable(40) %32, i8 0, i64 24, i1 false)
  store ptr %0, ptr %2, align 8, !tbaa !392
  %33 = getelementptr inbounds nuw i8, ptr %2, i64 24
  store i32 2, ptr %33, align 8, !tbaa !400
  %34 = getelementptr inbounds nuw i8, ptr %0, i64 24
  %35 = load ptr, ptr %34, align 8, !tbaa !3
  %36 = getelementptr inbounds nuw i8, ptr %35, i64 104
  %37 = load ptr, ptr %36, align 8, !tbaa !406
  %38 = getelementptr inbounds nuw i8, ptr %2, i64 32
  store ptr %37, ptr %38, align 8, !tbaa !261
  %39 = call fastcc i32 @ssl_start_async_job(ptr noundef nonnull %0, ptr noundef %2, ptr noundef nonnull @ssl_io_intern)
  call void @llvm.lifetime.end.p0(i64 40, ptr nonnull %2) #20
  br label %.thread24

40:                                               ; preds = %28, %24
  %41 = getelementptr inbounds nuw i8, ptr %0, i64 24
  %42 = load ptr, ptr %41, align 8, !tbaa !3
  %43 = getelementptr inbounds nuw i8, ptr %42, i64 104
  %44 = load ptr, ptr %43, align 8, !tbaa !406
  %45 = tail call i32 %44(ptr noundef nonnull %0) #20
  br label %.thread24

46:                                               ; preds = %22
  tail call void @ERR_new() #20
  tail call void @ERR_set_debug(ptr noundef nonnull @.str, i32 noundef 2790, ptr noundef nonnull @__func__.SSL_shutdown) #20
  tail call void (i32, i32, ptr, ...) @ERR_set_error(i32 noundef 20, i32 noundef 407, ptr noundef null) #20
  br label %.thread24

.thread24:                                        ; preds = %1, %16, %46, %40, %31, %21, %14
  %.0 = phi i32 [ %15, %14 ], [ -1, %21 ], [ -1, %46 ], [ %39, %31 ], [ %45, %40 ], [ -1, %16 ], [ -1, %1 ]
  ret i32 %.0
}